target datalayout = "e-m:e-p270:32:32-p271:32:32-p272:64:64-i64:64-i128:128-f80:128-n8:16:32:64-S128"
target triple = "x86_64-pc-linux-gnu"

%"struct.Luau::CodeGen::X64::OperandX64" = type { i8, %"struct.Luau::CodeGen::X64::RegisterX64", %"struct.Luau::CodeGen::X64::RegisterX64", i8, i32 }
%"struct.Luau::CodeGen::X64::RegisterX64" = type { i8 }
%"class.Luau::CodeGen::X64::IrCallWrapperX64" = type { ptr, ptr, i32, %"struct.std::array", i32, i32, i32, %"struct.Luau::CodeGen::X64::OperandX64", %"struct.std::array.16", %"struct.std::array.16" }
%"struct.std::array" = type { [6 x %"struct.Luau::CodeGen::X64::CallArgument"] }
%"struct.Luau::CodeGen::X64::CallArgument" = type <{ i8, [3 x i8], %"struct.Luau::CodeGen::X64::OperandX64", %"struct.Luau::CodeGen::IrOp", %"struct.Luau::CodeGen::X64::OperandX64", i8, [3 x i8] }>
%"struct.Luau::CodeGen::IrOp" = type { i32 }
%"struct.std::array.16" = type { [16 x i8] }

@_ZN4Luau7CodeGen3X64L5qwordE = internal constant %"struct.Luau::CodeGen::X64::OperandX64" { i8 1, %"struct.Luau::CodeGen::X64::RegisterX64" { i8 -128 }, %"struct.Luau::CodeGen::X64::RegisterX64" { i8 -128 }, i8 20, i32 0 }, align 4
@_ZN4Luau7CodeGen3X64L6rStateE = internal constant %"struct.Luau::CodeGen::X64::RegisterX64" { i8 124 }, align 1
@_ZN4Luau7CodeGen3X64L14rNativeContextE = internal constant %"struct.Luau::CodeGen::X64::RegisterX64" { i8 108 }, align 1
@_ZN4Luau7CodeGen3X64L4addrE = internal constant %"struct.Luau::CodeGen::X64::OperandX64" { i8 1, %"struct.Luau::CodeGen::X64::RegisterX64" { i8 -128 }, %"struct.Luau::CodeGen::X64::RegisterX64" { i8 -128 }, i8 16, i32 0 }, align 4
@_ZN4Luau7CodeGen3X64L5rBaseE = internal constant %"struct.Luau::CodeGen::X64::RegisterX64" { i8 116 }, align 1
@_ZN4Luau7CodeGen3X64L5noregE = internal constant %"struct.Luau::CodeGen::X64::RegisterX64" { i8 -128 }, align 1

; Function Attrs: mustprogress nounwind uwtable
define linkonce_odr dso_local void @_ZN4Luau7CodeGen3X6410OperandX64C2ENS1_7SizeX64ENS1_11RegisterX64EhS4_i(ptr noundef nonnull align 4 dereferenceable(8) %0, i8 noundef zeroext %1, i8 %2, i8 noundef zeroext %3, i8 %4, i32 noundef %5) unnamed_addr #4 comdat align 2 {
  %7 = alloca %"struct.Luau::CodeGen::X64::RegisterX64", align 1
  %8 = alloca %"struct.Luau::CodeGen::X64::RegisterX64", align 1
  %9 = alloca ptr, align 8
  %10 = alloca i8, align 1
  %11 = alloca i8, align 1
  %12 = alloca i32, align 4
  %13 = getelementptr inbounds nuw %"struct.Luau::CodeGen::X64::RegisterX64", ptr %7, i32 0, i32 0
  store i8 %2, ptr %13, align 1
  %14 = getelementptr inbounds nuw %"struct.Luau::CodeGen::X64::RegisterX64", ptr %8, i32 0, i32 0
  store i8 %4, ptr %14, align 1
  store ptr %0, ptr %9, align 8, !tbaa !24
  store i8 %1, ptr %10, align 1, !tbaa !73
  store i8 %3, ptr %11, align 1, !tbaa !21
  store i32 %5, ptr %12, align 4, !tbaa !22
  %15 = load ptr, ptr %9, align 8
  %16 = getelementptr inbounds nuw %"struct.Luau::CodeGen::X64::OperandX64", ptr %15, i32 0, i32 0
  store i8 1, ptr %16, align 4, !tbaa !13
  %17 = getelementptr inbounds nuw %"struct.Luau::CodeGen::X64::OperandX64", ptr %15, i32 0, i32 1
  call void @llvm.memcpy.p0.p0.i64(ptr align 1 %17, ptr align 1 %7, i64 1, i1 false), !tbaa.struct !23
  %18 = getelementptr inbounds nuw %"struct.Luau::CodeGen::X64::OperandX64", ptr %15, i32 0, i32 2
  call void @llvm.memcpy.p0.p0.i64(ptr align 2 %18, ptr align 1 %8, i64 1, i1 false), !tbaa.struct !23
  %19 = getelementptr inbounds nuw %"struct.Luau::CodeGen::X64::OperandX64", ptr %15, i32 0, i32 3
  %20 = load i8, ptr %10, align 1, !tbaa !73
  %21 = load i8, ptr %19, align 1
  %22 = and i8 %20, 15
  %23 = and i8 %21, -16
  %24 = or i8 %23, %22
  store i8 %24, ptr %19, align 1
  %25 = getelementptr inbounds nuw %"struct.Luau::CodeGen::X64::OperandX64", ptr %15, i32 0, i32 3
  %26 = load i8, ptr %11, align 1, !tbaa !21
  %27 = load i8, ptr %25, align 1
  %28 = and i8 %26, 15
  %29 = shl i8 %28, 4
  %30 = and i8 %27, 15
  %31 = or i8 %30, %29
  store i8 %31, ptr %25, align 1
  %32 = getelementptr inbounds nuw %"struct.Luau::CodeGen::X64::OperandX64", ptr %15, i32 0, i32 4
  %33 = load i32, ptr %12, align 4, !tbaa !22
  store i32 %33, ptr %32, align 4, !tbaa !26
  ret void
}

; Function Attrs: mustprogress uwtable
define dso_local void @_ZN4Luau7CodeGen3X6414emitUpdateBaseERNS1_18AssemblyBuilderX64E(ptr noundef nonnull align 8 dereferenceable(252) %0) #0 {
  %2 = alloca ptr, align 8
  %3 = alloca %"struct.Luau::CodeGen::X64::OperandX64", align 4
  %4 = alloca %"struct.Luau::CodeGen::X64::RegisterX64", align 1
  %5 = alloca %"struct.Luau::CodeGen::X64::OperandX64", align 4
  %6 = alloca %"struct.Luau::CodeGen::X64::OperandX64", align 4
  %7 = alloca %"struct.Luau::CodeGen::X64::RegisterX64", align 1
  store ptr %0, ptr %2, align 8, !tbaa !4
  %8 = load ptr, ptr %2, align 8, !tbaa !4
  call void @llvm.memcpy.p0.p0.i64(ptr align 1 %4, ptr align 1 @_ZN4Luau7CodeGen3X64L5rBaseE, i64 1, i1 false), !tbaa.struct !23
  %9 = getelementptr inbounds nuw %"struct.Luau::CodeGen::X64::RegisterX64", ptr %4, i32 0, i32 0
  %10 = load i8, ptr %9, align 1
  call void @_ZN4Luau7CodeGen3X6410OperandX64C2ENS1_11RegisterX64E(ptr noundef nonnull align 4 dereferenceable(8) %3, i8 %10)
  call void @llvm.lifetime.start.p0(i64 8, ptr %6) #8
  call void @llvm.memcpy.p0.p0.i64(ptr align 1 %7, ptr align 1 @_ZN4Luau7CodeGen3X64L6rStateE, i64 1, i1 false), !tbaa.struct !23
  %11 = getelementptr inbounds nuw %"struct.Luau::CodeGen::X64::RegisterX64", ptr %7, i32 0, i32 0
  %12 = load i8, ptr %11, align 1
  %13 = call i64 @_ZN4Luau7CodeGen3X64plENS1_11RegisterX64Ei(i8 %12, i32 noundef 16)
  store i64 %13, ptr %6, align 4
  %14 = call i64 @_ZNK4Luau7CodeGen3X6410OperandX64ixEOS2_(ptr noundef nonnull align 4 dereferenceable(8) @_ZN4Luau7CodeGen3X64L5qwordE, ptr noundef nonnull align 4 dereferenceable(8) %6)
  store i64 %14, ptr %5, align 4
  %15 = load i64, ptr %3, align 4
  %16 = load i64, ptr %5, align 4
  call void @_ZN4Luau7CodeGen3X6418AssemblyBuilderX643movENS1_10OperandX64ES3_(ptr noundef nonnull align 8 dereferenceable(252) %8, i64 %15, i64 %16)
  call void @llvm.lifetime.end.p0(i64 8, ptr %6) #8
  ret void
}

; Function Attrs: mustprogress nounwind uwtable
define linkonce_odr dso_local i64 @_ZNK4Luau7CodeGen3X6410OperandX64ixEOS2_(ptr noundef nonnull align 4 dereferenceable(8) %0, ptr noundef nonnull align 4 dereferenceable(8) %1) #4 comdat align 2 {
  %3 = alloca %"struct.Luau::CodeGen::X64::OperandX64", align 4
  %4 = alloca ptr, align 8
  %5 = alloca ptr, align 8
  store ptr %0, ptr %4, align 8, !tbaa !24
  store ptr %1, ptr %5, align 8, !tbaa !24
  %6 = load ptr, ptr %4, align 8
  %7 = load ptr, ptr %5, align 8, !tbaa !24
  %8 = getelementptr inbounds nuw %"struct.Luau::CodeGen::X64::OperandX64", ptr %7, i32 0, i32 0
  store i8 1, ptr %8, align 4, !tbaa !13
  %9 = getelementptr inbounds nuw %"struct.Luau::CodeGen::X64::OperandX64", ptr %6, i32 0, i32 3
  %10 = load i8, ptr %9, align 1
  %11 = and i8 %10, 15
  %12 = load ptr, ptr %5, align 8, !tbaa !24
  %13 = getelementptr inbounds nuw %"struct.Luau::CodeGen::X64::OperandX64", ptr %12, i32 0, i32 3
  %14 = load i8, ptr %13, align 1
  %15 = and i8 %11, 15
  %16 = and i8 %14, -16
  %17 = or i8 %16, %15
  store i8 %17, ptr %13, align 1
  %18 = load ptr, ptr %5, align 8, !tbaa !24
  call void @llvm.memcpy.p0.p0.i64(ptr align 4 %3, ptr align 4 %18, i64 8, i1 false), !tbaa.struct !19
  %19 = load i64, ptr %3, align 4
  ret i64 %19
}

; Function Attrs: mustprogress uwtable
define linkonce_odr dso_local i64 @_ZN4Luau7CodeGen3X64plENS1_11RegisterX64Ei(i8 %0, i32 noundef %1) #0 comdat {
  %3 = alloca %"struct.Luau::CodeGen::X64::OperandX64", align 4
  %4 = alloca %"struct.Luau::CodeGen::X64::RegisterX64", align 1
  %5 = alloca i32, align 4
  %6 = alloca %"struct.Luau::CodeGen::X64::RegisterX64", align 1
  %7 = alloca %"struct.Luau::CodeGen::X64::RegisterX64", align 1
  %8 = getelementptr inbounds nuw %"struct.Luau::CodeGen::X64::RegisterX64", ptr %4, i32 0, i32 0
  store i8 %0, ptr %8, align 1
  store i32 %1, ptr %5, align 4, !tbaa !22
  call void @llvm.memcpy.p0.p0.i64(ptr align 1 %6, ptr align 1 @_ZN4Luau7CodeGen3X64L5noregE, i64 1, i1 false), !tbaa.struct !23
  call void @llvm.memcpy.p0.p0.i64(ptr align 1 %7, ptr align 1 %4, i64 1, i1 false), !tbaa.struct !23
  %9 = load i32, ptr %5, align 4, !tbaa !22
  %10 = getelementptr inbounds nuw %"struct.Luau::CodeGen::X64::RegisterX64", ptr %6, i32 0, i32 0
  %11 = load i8, ptr %10, align 1
  %12 = getelementptr inbounds nuw %"struct.Luau::CodeGen::X64::RegisterX64", ptr %7, i32 0, i32 0
  %13 = load i8, ptr %12, align 1
  call void @_ZN4Luau7CodeGen3X6410OperandX64C2ENS1_7SizeX64ENS1_11RegisterX64EhS4_i(ptr noundef nonnull align 4 dereferenceable(8) %3, i8 noundef zeroext 0, i8 %11, i8 noundef zeroext 1, i8 %13, i32 noundef %9)
  %14 = load i64, ptr %3, align 4
  ret i64 %14
}

; Function Attrs: inlinehint mustprogress uwtable
define linkonce_odr dso_local i64 @_ZN4Luau7CodeGen3X6414luauRegAddressEi(i32 noundef %0) #6 comdat {
  %2 = alloca %"struct.Luau::CodeGen::X64::OperandX64", align 4
  %3 = alloca i32, align 4
  %4 = alloca %"struct.Luau::CodeGen::X64::OperandX64", align 4
  %5 = alloca %"struct.Luau::CodeGen::X64::RegisterX64", align 1
  store i32 %0, ptr %3, align 4, !tbaa !22
  call void @llvm.lifetime.start.p0(i64 8, ptr %4) #8
  call void @llvm.memcpy.p0.p0.i64(ptr align 1 %5, ptr align 1 @_ZN4Luau7CodeGen3X64L5rBaseE, i64 1, i1 false), !tbaa.struct !23
  %6 = load i32, ptr %3, align 4, !tbaa !22
  %7 = sext i32 %6 to i64
  %8 = mul i64 %7, 16
  %9 = trunc i64 %8 to i32
  %10 = getelementptr inbounds nuw %"struct.Luau::CodeGen::X64::RegisterX64", ptr %5, i32 0, i32 0
  %11 = load i8, ptr %10, align 1
  %12 = call i64 @_ZN4Luau7CodeGen3X64plENS1_11RegisterX64Ei(i8 %11, i32 noundef %9)
  store i64 %12, ptr %4, align 4
  %13 = call i64 @_ZNK4Luau7CodeGen3X6410OperandX64ixEOS2_(ptr noundef nonnull align 4 dereferenceable(8) @_ZN4Luau7CodeGen3X64L4addrE, ptr noundef nonnull align 4 dereferenceable(8) %4)
  store i64 %13, ptr %2, align 4
  call void @llvm.lifetime.end.p0(i64 8, ptr %4) #8
  %14 = load i64, ptr %2, align 4
  ret i64 %14
}

; Function Attrs: mustprogress nounwind uwtable
define linkonce_odr dso_local void @_ZN4Luau7CodeGen4IrOpC2Ev(ptr noundef nonnull align 4 dereferenceable(4) %0) unnamed_addr #4 comdat align 2 {
  %2 = alloca ptr, align 8
  store ptr %0, ptr %2, align 8, !tbaa !31
  %3 = load ptr, ptr %2, align 8
  %4 = load i32, ptr %3, align 4
  %5 = and i32 %4, -16
  %6 = or i32 %5, 0
  store i32 %6, ptr %3, align 4
  %7 = load i32, ptr %3, align 4
  %8 = and i32 %7, 15
  %9 = or i32 %8, 0
  store i32 %9, ptr %3, align 4
  ret void
}

; Function Attrs: mustprogress nounwind uwtable
define linkonce_odr dso_local void @_ZN4Luau7CodeGen3X6410OperandX64C2ENS1_11RegisterX64E(ptr noundef nonnull align 4 dereferenceable(8) %0, i8 %1) unnamed_addr #4 comdat align 2 {
  %3 = alloca %"struct.Luau::CodeGen::X64::RegisterX64", align 1
  %4 = alloca ptr, align 8
  %5 = getelementptr inbounds nuw %"struct.Luau::CodeGen::X64::RegisterX64", ptr %3, i32 0, i32 0
  store i8 %1, ptr %5, align 1
  store ptr %0, ptr %4, align 8, !tbaa !24
  %6 = load ptr, ptr %4, align 8
  %7 = getelementptr inbounds nuw %"struct.Luau::CodeGen::X64::OperandX64", ptr %6, i32 0, i32 0
  store i8 0, ptr %7, align 4, !tbaa !13
  %8 = getelementptr inbounds nuw %"struct.Luau::CodeGen::X64::OperandX64", ptr %6, i32 0, i32 1
  call void @llvm.memcpy.p0.p0.i64(ptr align 1 %8, ptr align 1 @_ZN4Luau7CodeGen3X64L5noregE, i64 1, i1 false), !tbaa.struct !23
  %9 = getelementptr inbounds nuw %"struct.Luau::CodeGen::X64::OperandX64", ptr %6, i32 0, i32 2
  call void @llvm.memcpy.p0.p0.i64(ptr align 2 %9, ptr align 1 %3, i64 1, i1 false), !tbaa.struct !23
  %10 = getelementptr inbounds nuw %"struct.Luau::CodeGen::X64::OperandX64", ptr %6, i32 0, i32 3
  %11 = load i8, ptr %10, align 1
  %12 = and i8 %11, -16
  %13 = or i8 %12, 0
  store i8 %13, ptr %10, align 1
  %14 = getelementptr inbounds nuw %"struct.Luau::CodeGen::X64::OperandX64", ptr %6, i32 0, i32 3
  %15 = load i8, ptr %14, align 1
  %16 = and i8 %15, 15
  %17 = or i8 %16, 16
  store i8 %17, ptr %14, align 1
  %18 = getelementptr inbounds nuw %"struct.Luau::CodeGen::X64::OperandX64", ptr %6, i32 0, i32 4
  store i32 0, ptr %18, align 4, !tbaa !26
  ret void
}

; Function Attrs: mustprogress uwtable
define dso_local void @_ZN4Luau7CodeGen3X6412callSetTableERNS1_13IrRegAllocX64ERNS1_18AssemblyBuilderX64EiNS1_10OperandX64Ei(ptr noundef nonnull align 8 dereferenceable(256) %0, ptr noundef nonnull align 8 dereferenceable(252) %1, i32 noundef %2, i64 %3, i32 noundef %4) #0 {
  %6 = alloca %"struct.Luau::CodeGen::X64::OperandX64", align 4
  %7 = alloca ptr, align 8
  %8 = alloca ptr, align 8
  %9 = alloca i32, align 4
  %10 = alloca i32, align 4
  %11 = alloca %"class.Luau::CodeGen::X64::IrCallWrapperX64", align 8
  %12 = alloca %"struct.Luau::CodeGen::X64::OperandX64", align 4
  %13 = alloca %"struct.Luau::CodeGen::X64::RegisterX64", align 1
  %14 = alloca %"struct.Luau::CodeGen::IrOp", align 4
  %15 = alloca %"struct.Luau::CodeGen::X64::OperandX64", align 4
  %16 = alloca %"struct.Luau::CodeGen::IrOp", align 4
  %17 = alloca %"struct.Luau::CodeGen::X64::OperandX64", align 4
  %18 = alloca %"struct.Luau::CodeGen::IrOp", align 4
  %19 = alloca %"struct.Luau::CodeGen::X64::OperandX64", align 4
  %20 = alloca %"struct.Luau::CodeGen::IrOp", align 4
  %21 = alloca %"struct.Luau::CodeGen::X64::OperandX64", align 4
  %22 = alloca %"struct.Luau::CodeGen::X64::OperandX64", align 4
  %23 = alloca %"struct.Luau::CodeGen::X64::RegisterX64", align 1
  store i64 %3, ptr %6, align 4
  store ptr %0, ptr %7, align 8, !tbaa !27
  store ptr %1, ptr %8, align 8, !tbaa !4
  store i32 %2, ptr %9, align 4, !tbaa !22
  store i32 %4, ptr %10, align 4, !tbaa !22
  call void @llvm.lifetime.start.p0(i64 240, ptr %11) #8
  %24 = load ptr, ptr %7, align 8, !tbaa !27
  %25 = load ptr, ptr %8, align 8, !tbaa !4
  call void @_ZN4Luau7CodeGen3X6416IrCallWrapperX64C1ERNS1_13IrRegAllocX64ERNS1_18AssemblyBuilderX64Ej(ptr noundef nonnull align 8 dereferenceable(240) %11, ptr noundef nonnull align 8 dereferenceable(256) %24, ptr noundef nonnull align 8 dereferenceable(252) %25, i32 noundef -1)
  call void @llvm.memcpy.p0.p0.i64(ptr align 1 %13, ptr align 1 @_ZN4Luau7CodeGen3X64L6rStateE, i64 1, i1 false), !tbaa.struct !23
  %26 = getelementptr inbounds nuw %"struct.Luau::CodeGen::X64::RegisterX64", ptr %13, i32 0, i32 0
  %27 = load i8, ptr %26, align 1
  call void @_ZN4Luau7CodeGen3X6410OperandX64C2ENS1_11RegisterX64E(ptr noundef nonnull align 4 dereferenceable(8) %12, i8 %27)
  call void @_ZN4Luau7CodeGen4IrOpC2Ev(ptr noundef nonnull align 4 dereferenceable(4) %14)
  %28 = load i64, ptr %12, align 4
  %29 = getelementptr inbounds nuw %"struct.Luau::CodeGen::IrOp", ptr %14, i32 0, i32 0
  %30 = load i32, ptr %29, align 4
  call void @_ZN4Luau7CodeGen3X6416IrCallWrapperX6411addArgumentENS1_7SizeX64ENS1_10OperandX64ENS0_4IrOpE(ptr noundef nonnull align 8 dereferenceable(240) %11, i8 noundef zeroext 4, i64 %28, i32 %30)
  %31 = load i32, ptr %9, align 4, !tbaa !22
  %32 = call i64 @_ZN4Luau7CodeGen3X6414luauRegAddressEi(i32 noundef %31)
  store i64 %32, ptr %15, align 4
  call void @_ZN4Luau7CodeGen4IrOpC2Ev(ptr noundef nonnull align 4 dereferenceable(4) %16)
  %33 = load i64, ptr %15, align 4
  %34 = getelementptr inbounds nuw %"struct.Luau::CodeGen::IrOp", ptr %16, i32 0, i32 0
  %35 = load i32, ptr %34, align 4
  call void @_ZN4Luau7CodeGen3X6416IrCallWrapperX6411addArgumentENS1_7SizeX64ENS1_10OperandX64ENS0_4IrOpE(ptr noundef nonnull align 8 dereferenceable(240) %11, i8 noundef zeroext 4, i64 %33, i32 %35)
  call void @llvm.memcpy.p0.p0.i64(ptr align 4 %17, ptr align 4 %6, i64 8, i1 false), !tbaa.struct !19
  call void @_ZN4Luau7CodeGen4IrOpC2Ev(ptr noundef nonnull align 4 dereferenceable(4) %18)
  %36 = load i64, ptr %17, align 4
  %37 = getelementptr inbounds nuw %"struct.Luau::CodeGen::IrOp", ptr %18, i32 0, i32 0
  %38 = load i32, ptr %37, align 4
  call void @_ZN4Luau7CodeGen3X6416IrCallWrapperX6411addArgumentENS1_7SizeX64ENS1_10OperandX64ENS0_4IrOpE(ptr noundef nonnull align 8 dereferenceable(240) %11, i8 noundef zeroext 4, i64 %36, i32 %38)
  %39 = load i32, ptr %10, align 4, !tbaa !22
  %40 = call i64 @_ZN4Luau7CodeGen3X6414luauRegAddressEi(i32 noundef %39)
  store i64 %40, ptr %19, align 4
  call void @_ZN4Luau7CodeGen4IrOpC2Ev(ptr noundef nonnull align 4 dereferenceable(4) %20)
  %41 = load i64, ptr %19, align 4
  %42 = getelementptr inbounds nuw %"struct.Luau::CodeGen::IrOp", ptr %20, i32 0, i32 0
  %43 = load i32, ptr %42, align 4
  call void @_ZN4Luau7CodeGen3X6416IrCallWrapperX6411addArgumentENS1_7SizeX64ENS1_10OperandX64ENS0_4IrOpE(ptr noundef nonnull align 8 dereferenceable(240) %11, i8 noundef zeroext 4, i64 %41, i32 %43)
  call void @llvm.lifetime.start.p0(i64 8, ptr %21) #8
  call void @llvm.lifetime.start.p0(i64 8, ptr %22) #8
  call void @llvm.memcpy.p0.p0.i64(ptr align 1 %23, ptr align 1 @_ZN4Luau7CodeGen3X64L14rNativeContextE, i64 1, i1 false), !tbaa.struct !23
  %44 = getelementptr inbounds nuw %"struct.Luau::CodeGen::X64::RegisterX64", ptr %23, i32 0, i32 0
  %45 = load i8, ptr %44, align 1
  %46 = call i64 @_ZN4Luau7CodeGen3X64plENS1_11RegisterX64Ei(i8 %45, i32 noundef 120)
  store i64 %46, ptr %22, align 4
  %47 = call i64 @_ZNK4Luau7CodeGen3X6410OperandX64ixEOS2_(ptr noundef nonnull align 4 dereferenceable(8) @_ZN4Luau7CodeGen3X64L5qwordE, ptr noundef nonnull align 4 dereferenceable(8) %22)
  store i64 %47, ptr %21, align 4
  call void @_ZN4Luau7CodeGen3X6416IrCallWrapperX644callERKNS1_10OperandX64E(ptr noundef nonnull align 8 dereferenceable(240) %11, ptr noundef nonnull align 4 dereferenceable(8) %21)
  call void @llvm.lifetime.end.p0(i64 8, ptr %22) #8
  call void @llvm.lifetime.end.p0(i64 8, ptr %21) #8
  %48 = load ptr, ptr %8, align 8, !tbaa !4
  call void @_ZN4Luau7CodeGen3X6414emitUpdateBaseERNS1_18AssemblyBuilderX64E(ptr noundef nonnull align 8 dereferenceable(252) %48)
  call void @llvm.lifetime.end.p0(i64 240, ptr %11) #8
  ret void
}